target datalayout = "e-m:e-p270:32:32-p271:32:32-p272:64:64-i64:64-i128:128-f80:128-n8:16:32:64-S128"
target triple = "x86_64-pc-linux-gnu"

%union.pthread_cond_t = type { %struct.__pthread_cond_s }
%struct.__pthread_cond_s = type { %union.__atomic_wide_counter, %union.__atomic_wide_counter, [2 x i32], [2 x i32], i32, i32, [2 x i32] }
%union.__atomic_wide_counter = type { i64 }
%union.pthread_mutex_t = type { %struct.__pthread_mutex_s }
%struct.__pthread_mutex_s = type { i32, i32, i32, i32, i32, i16, i16, %struct.__pthread_internal_list }
%struct.__pthread_internal_list = type { ptr, ptr }
%struct.stepd_step_rec_t = type { ptr, ptr, i32, %union.pthread_cond_t, %union.pthread_mutex_t, %struct.slurm_step_id_msg, i32, i32, i32, i32, i32, i32, ptr, ptr, i32, i32, ptr, i32, i32, i32, i32, i32, ptr, ptr, ptr, ptr, i32, i32, i64, i64, i16, i32, ptr, ptr, ptr, i32, ptr, i32, ptr, i32, ptr, i16, i32, i32, i32, ptr, i32, ptr, ptr, ptr, ptr, i32, i32, ptr, ptr, i8, i8, i8, i64, i32, ptr, ptr, ptr, ptr, ptr, ptr, ptr, ptr, ptr, ptr, i32, i32, ptr, i8, %union.pthread_cond_t, %union.pthread_mutex_t, i64, ptr, i32, i32, i32, ptr, i64, ptr, ptr, i8, ptr, i16, ptr, ptr, ptr, ptr, ptr, ptr, i64, ptr, i64, ptr, i16, i8, i16, i32, ptr, i16, ptr, ptr, i16, ptr, ptr, ptr, i8 }
%struct.slurm_step_id_msg = type { i64, i32, i32, i32 }
%struct.stepd_step_task_info_t = type { %union.pthread_mutex_t, i32, ptr, i32, i32, i32, ptr, ptr, ptr, i32, i32, i32, i32, i32, i32, ptr, ptr, ptr, i8, i8, i8, i8, i32, i32, ptr }

@.str.166 = private unnamed_addr constant [52 x i8] c"Only %d of %d requested tasks successfully launched\00", align 1
@.str.167 = private unnamed_addr constant [62 x i8] c"%s: No child processes. node_tasks:%u, expected:%d, reaped:%d\00", align 1
@__func__._wait_for_all_tasks = private unnamed_addr constant [20 x i8] c"_wait_for_all_tasks\00", align 1

; Function Attrs: nounwind uwtable
define internal void @_wait_for_all_tasks(ptr noundef %0) #0 {
  %2 = alloca ptr, align 8
  %3 = alloca i32, align 4
  %4 = alloca i32, align 4
  %5 = alloca i32, align 4
  %6 = alloca i32, align 4
  store ptr %0, ptr %2, align 8
  call void @llvm.lifetime.start.p0(i64 4, ptr %3) #12
  store i32 0, ptr %3, align 4
  call void @llvm.lifetime.start.p0(i64 4, ptr %4) #12
  store i32 0, ptr %4, align 4
  br label %7

7:                                                ; preds = %28, %1
  %8 = load i32, ptr %4, align 4
  %9 = load ptr, ptr %2, align 8
  %10 = getelementptr inbounds nuw %struct.stepd_step_rec_t, ptr %9, i32 0, i32 11
  %11 = load i32, ptr %10, align 4
  %12 = icmp ult i32 %8, %11
  br i1 %12, label %13, label %31

13:                                               ; preds = %7
  %14 = load ptr, ptr %2, align 8
  %15 = getelementptr inbounds nuw %struct.stepd_step_rec_t, ptr %14, i32 0, i32 62
  %16 = load ptr, ptr %15, align 8
  %17 = load i32, ptr %4, align 4
  %18 = sext i32 %17 to i64
  %19 = getelementptr inbounds ptr, ptr %16, i64 %18
  %20 = load ptr, ptr %19, align 8
  %21 = getelementptr inbounds nuw %struct.stepd_step_task_info_t, ptr %20, i32 0, i32 1
  %22 = load i32, ptr %21, align 8
  %23 = icmp ult i32 %22, 3
  br i1 %23, label %24, label %27

24:                                               ; preds = %13
  %25 = load i32, ptr %3, align 4
  %26 = add nsw i32 %25, 1
  store i32 %26, ptr %3, align 4
  br label %27

27:                                               ; preds = %24, %13
  br label %28

28:                                               ; preds = %27
  %29 = load i32, ptr %4, align 4
  %30 = add nsw i32 %29, 1
  store i32 %30, ptr %4, align 4
  br label %7, !llvm.loop !28

31:                                               ; preds = %7
  %32 = load i32, ptr %3, align 4
  %33 = load ptr, ptr %2, align 8
  %34 = getelementptr inbounds nuw %struct.stepd_step_rec_t, ptr %33, i32 0, i32 11
  %35 = load i32, ptr %34, align 4
  %36 = icmp ult i32 %32, %35
  br i1 %36, label %37, label %52

37:                                               ; preds = %31
  br label %38

38:                                               ; preds = %37
  br label %39

39:                                               ; preds = %38
  %40 = call i32 @get_log_level()
  %41 = icmp sge i32 %40, 4
  br i1 %41, label %42, label %47

42:                                               ; preds = %39
  %43 = load i32, ptr %3, align 4
  %44 = load ptr, ptr %2, align 8
  %45 = getelementptr inbounds nuw %struct.stepd_step_rec_t, ptr %44, i32 0, i32 11
  %46 = load i32, ptr %45, align 4
  call void (i32, ptr, ...) @log_var(i32 noundef 4, ptr noundef @.str.166, i32 noundef %43, i32 noundef %46)
  br label %47

47:                                               ; preds = %42, %39
  br label %48

48:                                               ; preds = %47
  br label %49

49:                                               ; preds = %48
  br label %50

50:                                               ; preds = %49
  br label %51

51:                                               ; preds = %50
  br label %52

52:                                               ; preds = %51, %31
  store i32 0, ptr %4, align 4
  br label %53

53:                                               ; preds = %100, %52
  %54 = load i32, ptr %4, align 4
  %55 = load i32, ptr %3, align 4
  %56 = icmp slt i32 %54, %55
  br i1 %56, label %57, label %101

57:                                               ; preds = %53
  call void @llvm.lifetime.start.p0(i64 4, ptr %5) #12
  %58 = load ptr, ptr %2, align 8
  %59 = call i32 @_wait_for_any_task(ptr noundef %58, i1 noundef zeroext true)
  store i32 %59, ptr %5, align 4
  %60 = icmp eq i32 %59, -1
  br i1 %60, label %61, label %68

61:                                               ; preds = %57
  %62 = load ptr, ptr %2, align 8
  %63 = getelementptr inbounds nuw %struct.stepd_step_rec_t, ptr %62, i32 0, i32 11
  %64 = load i32, ptr %63, align 4
  %65 = load i32, ptr %3, align 4
  %66 = load i32, ptr %4, align 4
  %67 = call i32 (ptr, ...) @error(ptr noundef @.str.167, ptr noundef @__func__._wait_for_all_tasks, i32 noundef %64, i32 noundef %65, i32 noundef %66)
  store i32 9, ptr %6, align 4
  br label %98

68:                                               ; preds = %57
  %69 = load i32, ptr %5, align 4
  %70 = load i32, ptr %4, align 4
  %71 = add nsw i32 %70, %69
  store i32 %71, ptr %4, align 4
  %72 = load i32, ptr %4, align 4
  %73 = load i32, ptr %3, align 4
  %74 = icmp slt i32 %72, %73
  br i1 %74, label %75, label %86

75:                                               ; preds = %68
  %76 = call i32 @usleep(i32 noundef 100000)
  %77 = load ptr, ptr %2, align 8
  %78 = call i32 @_wait_for_any_task(ptr noundef %77, i1 noundef zeroext false)
  store i32 %78, ptr %5, align 4
  %79 = load i32, ptr %5, align 4
  %80 = icmp ne i32 %79, -1
  br i1 %80, label %81, label %85

81:                                               ; preds = %75
  %82 = load i32, ptr %5, align 4
  %83 = load i32, ptr %4, align 4
  %84 = add nsw i32 %83, %82
  store i32 %84, ptr %4, align 4
  br label %85

85:                                               ; preds = %81, %75
  br label %86

86:                                               ; preds = %85, %68
  %87 = load i32, ptr %4, align 4
  %88 = load i32, ptr %3, align 4
  %89 = icmp slt i32 %87, %88
  br i1 %89, label %90, label %97

90:                                               ; preds = %86
  br label %91

91:                                               ; preds = %95, %90
  %92 = load ptr, ptr %2, align 8
  %93 = call i32 @stepd_send_pending_exit_msgs(ptr noundef %92)
  %94 = icmp ne i32 %93, 0
  br i1 %94, label %95, label %96

95:                                               ; preds = %91
  br label %91, !llvm.loop !29

96:                                               ; preds = %91
  br label %97

97:                                               ; preds = %96, %86
  store i32 0, ptr %6, align 4
  br label %98

98:                                               ; preds = %97, %61
  call void @llvm.lifetime.end.p0(i64 4, ptr %5) #12
  %99 = load i32, ptr %6, align 4
  switch i32 %99, label %102 [
    i32 0, label %100
    i32 9, label %101
  ]

100:                                              ; preds = %98
  br label %53, !llvm.loop !30

101:                                              ; preds = %98, %53
  call void @llvm.lifetime.end.p0(i64 4, ptr %4) #12
  call void @llvm.lifetime.end.p0(i64 4, ptr %3) #12
  ret void

102:                                              ; preds = %98
  unreachable
}