; Function Attrs: nounwind uwtable
define internal fastcc void @_wait_for_all_tasks(ptr noundef %0) unnamed_addr #0 {
  %2 = getelementptr inbounds nuw i8, ptr %0, i64 156
  %3 = load i32, ptr %2, align 4
  %.not49 = icmp eq i32 %3, 0
  br i1 %.not49, label %._crit_edge, label %.lr.ph

.lr.ph:                                           ; preds = %1
  %4 = getelementptr inbounds nuw i8, ptr %0, i64 480
  %5 = load ptr, ptr %4, align 8
  %wide.trip.count = zext i32 %3 to i64
  br label %6

6:                                                ; preds = %.lr.ph, %6
  %indvars.iv = phi i64 [ 0, %.lr.ph ], [ %indvars.iv.next, %6 ]
  %.02843 = phi i32 [ 0, %.lr.ph ], [ %spec.select, %6 ]
  %7 = getelementptr inbounds nuw ptr, ptr %5, i64 %indvars.iv
  %8 = load ptr, ptr %7, align 8
  %9 = getelementptr inbounds nuw i8, ptr %8, i64 40
  %10 = load i32, ptr %9, align 8
  %11 = icmp ult i32 %10, 3
  %12 = zext i1 %11 to i32
  %spec.select = add nuw nsw i32 %.02843, %12
  %indvars.iv.next = add nuw nsw i64 %indvars.iv, 1
  %exitcond.not = icmp eq i64 %indvars.iv.next, %wide.trip.count
  br i1 %exitcond.not, label %._crit_edge, label %6, !llvm.loop !31

._crit_edge:                                      ; preds = %6, %1
  %.028.lcssa = phi i32 [ 0, %1 ], [ %spec.select, %6 ]
  %13 = icmp ult i32 %.028.lcssa, %3
  br i1 %13, label %14, label %19

14:                                               ; preds = %._crit_edge
  %15 = tail call i32 @get_log_level() #17
  %16 = icmp sgt i32 %15, 3
  br i1 %16, label %17, label %19

17:                                               ; preds = %14
  %18 = load i32, ptr %2, align 4
  tail call void (i32, ptr, ...) @log_var(i32 noundef 4, ptr noundef nonnull @.str.166, i32 noundef %.028.lcssa, i32 noundef %18) #17
  br label %19

19:                                               ; preds = %14, %17, %._crit_edge
  %20 = icmp sgt i32 %.028.lcssa, 0
  br i1 %20, label %.lr.ph48.preheader, label %.loopexit40

.lr.ph48.preheader:                               ; preds = %19
  %21 = tail call fastcc i32 @_wait_for_any_task(ptr noundef %0, i1 noundef zeroext true)
  %22 = icmp eq i32 %21, -1
  br i1 %22, label %.thread, label %.lr.ph55

.thread:                                          ; preds = %.loopexit, %.lr.ph48.preheader
  %.146.lcssa = phi i32 [ 0, %.lr.ph48.preheader ], [ %.3, %.loopexit ]
  %23 = load i32, ptr %2, align 4
  %24 = tail call i32 (ptr, ...) @error(ptr noundef nonnull @.str.167, ptr noundef nonnull @__func__._wait_for_all_tasks, i32 noundef %23, i32 noundef %.028.lcssa, i32 noundef %.146.lcssa) #17
  br label %.loopexit40

.lr.ph55:                                         ; preds = %.lr.ph48.preheader, %.loopexit
  %25 = phi i32 [ %35, %.loopexit ], [ %21, %.lr.ph48.preheader ]
  %.14654 = phi i32 [ %.3, %.loopexit ], [ 0, %.lr.ph48.preheader ]
  %26 = add nsw i32 %25, %.14654
  %27 = icmp slt i32 %26, %.028.lcssa
  br i1 %27, label %28, label %32

28:                                               ; preds = %.lr.ph55
  %29 = tail call i32 @usleep(i32 noundef 100000) #17
  %30 = tail call fastcc i32 @_wait_for_any_task(ptr noundef %0, i1 noundef zeroext false)
  %.not = icmp eq i32 %30, -1
  %31 = select i1 %.not, i32 0, i32 %30
  %spec.select36 = add nsw i32 %31, %26
  br label %32

32:                                               ; preds = %28, %.lr.ph55
  %.3 = phi i32 [ %26, %.lr.ph55 ], [ %spec.select36, %28 ]
  %33 = icmp slt i32 %.3, %.028.lcssa
  br i1 %33, label %.preheader, label %.loopexit40

.preheader:                                       ; preds = %32, %.preheader
  %34 = tail call i32 @stepd_send_pending_exit_msgs(ptr noundef %0)
  %.not35 = icmp eq i32 %34, 0
  br i1 %.not35, label %.loopexit, label %.preheader, !llvm.loop !32

.loopexit:                                        ; preds = %.preheader
  %35 = tail call fastcc i32 @_wait_for_any_task(ptr noundef %0, i1 noundef zeroext true)
  %36 = icmp eq i32 %35, -1
  br i1 %36, label %.thread, label %.lr.ph55

.loopexit40:                                      ; preds = %32, %19, %.thread
  ret void
}